; Function Attrs: mustprogress nofree norecurse nosync nounwind willreturn memory(read, inaccessiblemem: none) uwtable
define i32 @Tim_ManBoxNum(ptr noundef readonly captures(none) %0) local_unnamed_addr #5 {
  %2 = load ptr, ptr %0, align 8
  %.not = icmp eq ptr %2, null
  br i1 %.not, label %5, label %3

3:                                                ; preds = %1
  %4 = getelementptr i8, ptr %2, i64 4
  %.val = load i32, ptr %4, align 4
  br label %5

5:                                                ; preds = %1, %3
  %6 = phi i32 [ %.val, %3 ], [ 0, %1 ]
  ret i32 %6
}